target datalayout = "e-m:e-p270:32:32-p271:32:32-p272:64:64-i64:64-i128:128-f80:128-n8:16:32:64-S128"
target triple = "x86_64-unknown-linux-gnu"

%"class.std::set.0" = type { %"class.std::_Rb_tree.1" }
%"class.std::_Rb_tree.1" = type { %"struct.std::_Rb_tree<QuantLib::Observer *, QuantLib::Observer *, std::_Identity<QuantLib::Observer *>, std::less<QuantLib::Observer *>>::_Rb_tree_impl" }
%"struct.std::_Rb_tree<QuantLib::Observer *, QuantLib::Observer *, std::_Identity<QuantLib::Observer *>, std::less<QuantLib::Observer *>>::_Rb_tree_impl" = type { [8 x i8], %"struct.std::_Rb_tree_header" }
%"struct.std::_Rb_tree_header" = type { %"struct.std::_Rb_tree_node_base", i64 }
%"struct.std::_Rb_tree_node_base" = type { i32, ptr, ptr, ptr }
%"class.QuantLib::Date" = type { i64 }
%"class.boost::detail::shared_count" = type { ptr }
%"class.std::set" = type { %"class.std::_Rb_tree" }
%"class.std::_Rb_tree" = type { %"struct.std::_Rb_tree<boost::shared_ptr<QuantLib::Observable>, boost::shared_ptr<QuantLib::Observable>, std::_Identity<boost::shared_ptr<QuantLib::Observable>>, std::less<boost::shared_ptr<QuantLib::Observable>>>::_Rb_tree_impl" }
%"struct.std::_Rb_tree<boost::shared_ptr<QuantLib::Observable>, boost::shared_ptr<QuantLib::Observable>, std::_Identity<boost::shared_ptr<QuantLib::Observable>>, std::less<boost::shared_ptr<QuantLib::Observable>>>::_Rb_tree_impl" = type { [8 x i8], %"struct.std::_Rb_tree_header" }
%"class.QuantLib::Observable" = type { ptr, %"class.std::set.0" }
%"class.QuantLib::Period" = type { i32, i32 }
%"class.QuantLib::Handle.51" = type { %"class.boost::shared_ptr.52" }
%"class.boost::shared_ptr.52" = type { ptr, %"class.boost::detail::shared_count" }
%"class.QuantLib::HaganPricer" = type { %"class.QuantLib::CmsCouponPricer.base", %"class.QuantLib::MeanRevertingPricer", %"class.boost::shared_ptr.53", i32, %"class.boost::shared_ptr.54", ptr, %"class.QuantLib::Date", %"class.QuantLib::Date", double, double, double, double, double, double, double, double, %"class.QuantLib::Handle", %"class.QuantLib::Period", %"class.boost::shared_ptr.55", %"class.QuantLib::Observer", %"class.QuantLib::Observable" }
%"class.QuantLib::CmsCouponPricer.base" = type { %"class.QuantLib::FloatingRateCouponPricer.base", %"class.QuantLib::Handle.51" }
%"class.QuantLib::FloatingRateCouponPricer.base" = type { ptr }
%"class.QuantLib::MeanRevertingPricer" = type { ptr }
%"class.boost::shared_ptr.53" = type { ptr, %"class.boost::detail::shared_count" }
%"class.boost::shared_ptr.54" = type { ptr, %"class.boost::detail::shared_count" }
%"class.QuantLib::Handle" = type { %"class.boost::shared_ptr.50" }
%"class.boost::shared_ptr.50" = type { ptr, %"class.boost::detail::shared_count" }
%"class.boost::shared_ptr.55" = type { ptr, %"class.boost::detail::shared_count" }
%"class.QuantLib::Observer" = type { ptr, %"class.std::set" }

; Function Attrs: mustprogress uwtable
define noundef double @_ZNK8QuantLib11HaganPricer11swapletRateEv(ptr noundef nonnull align 8 dereferenceable(200) %this) unnamed_addr #2 align 2 {
entry:
  %this.addr = alloca ptr, align 8
  store ptr %this, ptr %this.addr, align 8, !tbaa !3
  %this1 = load ptr, ptr %this.addr, align 8
  %vtable = load ptr, ptr %this1, align 8, !tbaa !12
  %vfn = getelementptr inbounds ptr, ptr %vtable, i64 2
  %0 = load ptr, ptr %vfn, align 8
  %call = call noundef double %0(ptr noundef nonnull align 8 dereferenceable(200) %this1)
  %coupon_ = getelementptr inbounds nuw %"class.QuantLib::HaganPricer", ptr %this1, i32 0, i32 5
  %1 = load ptr, ptr %coupon_, align 8, !tbaa !63
  %call2 = call noundef double @_ZNK8QuantLib6Coupon13accrualPeriodEv(ptr noundef nonnull align 8 dereferenceable(88) %1)
  %discount_ = getelementptr inbounds nuw %"class.QuantLib::HaganPricer", ptr %this1, i32 0, i32 9
  %2 = load double, ptr %discount_, align 8, !tbaa !66
  %mul = fmul double %call2, %2
  %div = fdiv double %call, %mul
  ret double %div
}